target datalayout = "e-m:e-p270:32:32-p271:32:32-p272:64:64-i64:64-i128:128-f80:128-n8:16:32:64-S128"
target triple = "x86_64-pc-linux-gnu"

%struct.SDL_Surface = type { i32, i32, i32, i32, i32, ptr, i32, ptr, i32, i32, ptr, i32, ptr, i32, ptr, i32, %struct.SDL_Rect, %struct.SDL_BlitMap }
%struct.SDL_Rect = type { i32, i32, i32, i32 }
%struct.SDL_BlitMap = type { i32, ptr, ptr, %struct.SDL_BlitInfo, i32, i32 }
%struct.SDL_BlitInfo = type { ptr, ptr, i32, i32, i32, i32, ptr, ptr, i32, i32, i32, i32, ptr, ptr, ptr, ptr, ptr, ptr, i32, i32, i8, i8, i8, i8 }

; Function Attrs: nounwind uwtable
define internal zeroext i1 @readRlePixels(ptr noundef %0, ptr noundef %1, i32 noundef %2) #0 {
  %4 = alloca i1, align 1
  %5 = alloca ptr, align 8
  %6 = alloca ptr, align 8
  %7 = alloca i32, align 4
  %8 = alloca i32, align 4
  %9 = alloca i32, align 4
  %10 = alloca ptr, align 8
  %11 = alloca ptr, align 8
  %12 = alloca ptr, align 8
  %13 = alloca ptr, align 8
  %14 = alloca i32, align 4
  %15 = alloca i8, align 1
  %16 = alloca i8, align 1
  %17 = alloca i32, align 4
  %18 = alloca i32, align 4
  %19 = alloca i8, align 1
  %20 = alloca i8, align 1
  store ptr %0, ptr %5, align 8
  store ptr %1, ptr %6, align 8
  store i32 %2, ptr %7, align 4
  call void @llvm.lifetime.start.p0(i64 4, ptr %8) #5
  %21 = load ptr, ptr %5, align 8
  %22 = getelementptr inbounds nuw %struct.SDL_Surface, ptr %21, i32 0, i32 4
  %23 = load i32, ptr %22, align 8
  store i32 %23, ptr %8, align 4
  call void @llvm.lifetime.start.p0(i64 4, ptr %9) #5
  %24 = load ptr, ptr %5, align 8
  %25 = getelementptr inbounds nuw %struct.SDL_Surface, ptr %24, i32 0, i32 3
  %26 = load i32, ptr %25, align 4
  store i32 %26, ptr %9, align 4
  call void @llvm.lifetime.start.p0(i64 8, ptr %10) #5
  %27 = load ptr, ptr %5, align 8
  %28 = getelementptr inbounds nuw %struct.SDL_Surface, ptr %27, i32 0, i32 5
  %29 = load ptr, ptr %28, align 8
  store ptr %29, ptr %10, align 8
  call void @llvm.lifetime.start.p0(i64 8, ptr %11) #5
  %30 = load ptr, ptr %10, align 8
  %31 = load i32, ptr %9, align 4
  %32 = load i32, ptr %8, align 4
  %33 = mul nsw i32 %31, %32
  %34 = sext i32 %33 to i64
  %35 = getelementptr inbounds i8, ptr %30, i64 %34
  store ptr %35, ptr %11, align 8
  call void @llvm.lifetime.start.p0(i64 8, ptr %12) #5
  %36 = load ptr, ptr %11, align 8
  %37 = load i32, ptr %8, align 4
  %38 = sext i32 %37 to i64
  %39 = sub i64 0, %38
  %40 = getelementptr inbounds i8, ptr %36, i64 %39
  store ptr %40, ptr %12, align 8
  call void @llvm.lifetime.start.p0(i64 8, ptr %13) #5
  call void @llvm.lifetime.start.p0(i64 4, ptr %14) #5
  store i32 0, ptr %14, align 4
  call void @llvm.lifetime.start.p0(i64 1, ptr %15) #5
  call void @llvm.lifetime.start.p0(i64 1, ptr %16) #5
  call void @llvm.lifetime.start.p0(i64 4, ptr %17) #5
  %41 = load i32, ptr %7, align 4
  %42 = icmp ne i32 %41, 0
  %43 = select i1 %42, i32 1, i32 2
  store i32 %43, ptr %17, align 4
  br label %44

44:                                               ; preds = %173, %3
  %45 = load ptr, ptr %6, align 8
  %46 = call zeroext i1 @SDL_ReadU8_REAL(ptr noundef %45, ptr noundef %15)
  br i1 %46, label %48, label %47

47:                                               ; preds = %44
  store i1 false, ptr %4, align 1
  store i32 1, ptr %18, align 4
  br label %174

48:                                               ; preds = %44
  %49 = load i8, ptr %15, align 1
  %50 = icmp ne i8 %49, 0
  br i1 %50, label %51, label %86

51:                                               ; preds = %48
  call void @llvm.lifetime.start.p0(i64 1, ptr %19) #5
  %52 = load ptr, ptr %6, align 8
  %53 = call zeroext i1 @SDL_ReadU8_REAL(ptr noundef %52, ptr noundef %19)
  br i1 %53, label %55, label %54

54:                                               ; preds = %51
  store i1 false, ptr %4, align 1
  store i32 1, ptr %18, align 4
  br label %83

55:                                               ; preds = %51
  %56 = load i32, ptr %17, align 4
  %57 = load i8, ptr %15, align 1
  %58 = zext i8 %57 to i32
  %59 = sdiv i32 %58, %56
  %60 = trunc i32 %59 to i8
  store i8 %60, ptr %15, align 1
  br label %61

61:                                               ; preds = %78, %55
  %62 = load ptr, ptr %12, align 8
  %63 = load i32, ptr %14, align 4
  %64 = add nsw i32 %63, 1
  store i32 %64, ptr %14, align 4
  %65 = sext i32 %63 to i64
  %66 = getelementptr inbounds i8, ptr %62, i64 %65
  store ptr %66, ptr %13, align 8
  %67 = load ptr, ptr %13, align 8
  %68 = load ptr, ptr %10, align 8
  %69 = icmp uge ptr %67, %68
  br i1 %69, label %70, label %77

70:                                               ; preds = %61
  %71 = load ptr, ptr %13, align 8
  %72 = load ptr, ptr %11, align 8
  %73 = icmp ult ptr %71, %72
  br i1 %73, label %74, label %77

74:                                               ; preds = %70
  %75 = load i8, ptr %19, align 1
  %76 = load ptr, ptr %13, align 8
  store i8 %75, ptr %76, align 1
  br label %77

77:                                               ; preds = %74, %70, %61
  br label %78

78:                                               ; preds = %77
  %79 = load i8, ptr %15, align 1
  %80 = add i8 %79, -1
  store i8 %80, ptr %15, align 1
  %81 = icmp ne i8 %80, 0
  br i1 %81, label %61, label %82, !llvm.loop !11

82:                                               ; preds = %78
  store i32 0, ptr %18, align 4
  br label %83

83:                                               ; preds = %82, %54
  call void @llvm.lifetime.end.p0(i64 1, ptr %19) #5
  %84 = load i32, ptr %18, align 4
  switch i32 %84, label %174 [
    i32 0, label %85
  ]

85:                                               ; preds = %83
  br label %173

86:                                               ; preds = %48
  %87 = load ptr, ptr %6, align 8
  %88 = call zeroext i1 @SDL_ReadU8_REAL(ptr noundef %87, ptr noundef %15)
  br i1 %88, label %90, label %89

89:                                               ; preds = %86
  store i1 false, ptr %4, align 1
  store i32 1, ptr %18, align 4
  br label %174

90:                                               ; preds = %86
  %91 = load i8, ptr %15, align 1
  %92 = zext i8 %91 to i32
  switch i32 %92, label %125 [
    i32 0, label %93
    i32 1, label %99
    i32 2, label %100
  ]

93:                                               ; preds = %90
  store i32 0, ptr %14, align 4
  %94 = load i32, ptr %8, align 4
  %95 = load ptr, ptr %12, align 8
  %96 = sext i32 %94 to i64
  %97 = sub i64 0, %96
  %98 = getelementptr inbounds i8, ptr %95, i64 %97
  store ptr %98, ptr %12, align 8
  br label %172

99:                                               ; preds = %90
  store i1 true, ptr %4, align 1
  store i32 1, ptr %18, align 4
  br label %174

100:                                              ; preds = %90
  %101 = load ptr, ptr %6, align 8
  %102 = call zeroext i1 @SDL_ReadU8_REAL(ptr noundef %101, ptr noundef %15)
  br i1 %102, label %104, label %103

103:                                              ; preds = %100
  store i1 false, ptr %4, align 1
  store i32 1, ptr %18, align 4
  br label %174

104:                                              ; preds = %100
  %105 = load i8, ptr %15, align 1
  %106 = zext i8 %105 to i32
  %107 = load i32, ptr %17, align 4
  %108 = sdiv i32 %106, %107
  %109 = load i32, ptr %14, align 4
  %110 = add nsw i32 %109, %108
  store i32 %110, ptr %14, align 4
  %111 = load ptr, ptr %6, align 8
  %112 = call zeroext i1 @SDL_ReadU8_REAL(ptr noundef %111, ptr noundef %15)
  br i1 %112, label %114, label %113

113:                                              ; preds = %104
  store i1 false, ptr %4, align 1
  store i32 1, ptr %18, align 4
  br label %174

114:                                              ; preds = %104
  %115 = load i8, ptr %15, align 1
  %116 = zext i8 %115 to i32
  %117 = load i32, ptr %17, align 4
  %118 = sdiv i32 %116, %117
  %119 = load i32, ptr %8, align 4
  %120 = mul nsw i32 %118, %119
  %121 = load ptr, ptr %12, align 8
  %122 = sext i32 %120 to i64
  %123 = sub i64 0, %122
  %124 = getelementptr inbounds i8, ptr %121, i64 %123
  store ptr %124, ptr %12, align 8
  br label %172

125:                                              ; preds = %90
  %126 = load i32, ptr %17, align 4
  %127 = load i8, ptr %15, align 1
  %128 = zext i8 %127 to i32
  %129 = sdiv i32 %128, %126
  %130 = trunc i32 %129 to i8
  store i8 %130, ptr %15, align 1
  %131 = load i8, ptr %15, align 1
  %132 = zext i8 %131 to i32
  %133 = and i32 %132, 1
  %134 = trunc i32 %133 to i8
  store i8 %134, ptr %16, align 1
  br label %135

135:                                              ; preds = %159, %125
  call void @llvm.lifetime.start.p0(i64 1, ptr %20) #5
  %136 = load ptr, ptr %6, align 8
  %137 = call zeroext i1 @SDL_ReadU8_REAL(ptr noundef %136, ptr noundef %20)
  br i1 %137, label %139, label %138

138:                                              ; preds = %135
  store i1 false, ptr %4, align 1
  store i32 1, ptr %18, align 4
  br label %156

139:                                              ; preds = %135
  %140 = load ptr, ptr %12, align 8
  %141 = load i32, ptr %14, align 4
  %142 = add nsw i32 %141, 1
  store i32 %142, ptr %14, align 4
  %143 = sext i32 %141 to i64
  %144 = getelementptr inbounds i8, ptr %140, i64 %143
  store ptr %144, ptr %13, align 8
  %145 = load ptr, ptr %13, align 8
  %146 = load ptr, ptr %10, align 8
  %147 = icmp uge ptr %145, %146
  br i1 %147, label %148, label %155

148:                                              ; preds = %139
  %149 = load ptr, ptr %13, align 8
  %150 = load ptr, ptr %11, align 8
  %151 = icmp ult ptr %149, %150
  br i1 %151, label %152, label %155

152:                                              ; preds = %148
  %153 = load i8, ptr %20, align 1
  %154 = load ptr, ptr %13, align 8
  store i8 %153, ptr %154, align 1
  br label %155

155:                                              ; preds = %152, %148, %139
  store i32 0, ptr %18, align 4
  br label %156

156:                                              ; preds = %155, %138
  call void @llvm.lifetime.end.p0(i64 1, ptr %20) #5
  %157 = load i32, ptr %18, align 4
  switch i32 %157, label %174 [
    i32 0, label %158
  ]

158:                                              ; preds = %156
  br label %159

159:                                              ; preds = %158
  %160 = load i8, ptr %15, align 1
  %161 = add i8 %160, -1
  store i8 %161, ptr %15, align 1
  %162 = icmp ne i8 %161, 0
  br i1 %162, label %135, label %163, !llvm.loop !12

163:                                              ; preds = %159
  %164 = load i8, ptr %16, align 1
  %165 = zext i8 %164 to i32
  %166 = icmp ne i32 %165, 0
  br i1 %166, label %167, label %171

167:                                              ; preds = %163
  %168 = load ptr, ptr %6, align 8
  %169 = call zeroext i1 @SDL_ReadU8_REAL(ptr noundef %168, ptr noundef %15)
  br i1 %169, label %171, label %170

170:                                              ; preds = %167
  store i1 false, ptr %4, align 1
  store i32 1, ptr %18, align 4
  br label %174

171:                                              ; preds = %167, %163
  br label %172

172:                                              ; preds = %171, %114, %93
  br label %173

173:                                              ; preds = %172, %85
  br label %44

174:                                              ; preds = %170, %156, %113, %103, %99, %89, %83, %47
  call void @llvm.lifetime.end.p0(i64 4, ptr %17) #5
  call void @llvm.lifetime.end.p0(i64 1, ptr %16) #5
  call void @llvm.lifetime.end.p0(i64 1, ptr %15) #5
  call void @llvm.lifetime.end.p0(i64 4, ptr %14) #5
  call void @llvm.lifetime.end.p0(i64 8, ptr %13) #5
  call void @llvm.lifetime.end.p0(i64 8, ptr %12) #5
  call void @llvm.lifetime.end.p0(i64 8, ptr %11) #5
  call void @llvm.lifetime.end.p0(i64 8, ptr %10) #5
  call void @llvm.lifetime.end.p0(i64 4, ptr %9) #5
  call void @llvm.lifetime.end.p0(i64 4, ptr %8) #5
  %175 = load i1, ptr %4, align 1
  ret i1 %175
}