; Function Attrs: nounwind uwtable
define internal fastcc noundef zeroext i1 @readRlePixels(ptr noundef readonly captures(none) %0, ptr noundef nonnull %1, i32 noundef range(i32 0, 2) %2) unnamed_addr #0 {
  %4 = alloca i8, align 1
  %5 = alloca i8, align 1
  %6 = alloca i8, align 1
  %7 = getelementptr inbounds nuw i8, ptr %0, i64 16
  %8 = load i32, ptr %7, align 8
  %9 = getelementptr inbounds nuw i8, ptr %0, i64 12
  %10 = load i32, ptr %9, align 4
  %11 = getelementptr inbounds nuw i8, ptr %0, i64 24
  %12 = load ptr, ptr %11, align 8
  %13 = mul nsw i32 %10, %8
  %14 = sext i32 %13 to i64
  %15 = getelementptr inbounds i8, ptr %12, i64 %14
  %16 = sext i32 %8 to i64
  %17 = sub nsw i64 0, %16
  call void @llvm.lifetime.start.p0(i64 1, ptr nonnull %4) #5
  %18 = call zeroext i1 @SDL_ReadU8_REAL(ptr noundef nonnull %1, ptr noundef nonnull %4) #5
  br i1 %18, label %.lr.ph, label %.loopexit

.lr.ph:                                           ; preds = %3
  %19 = getelementptr inbounds i8, ptr %15, i64 %17
  %20 = xor i32 %2, 1
  br label %21

21:                                               ; preds = %.lr.ph, %85
  %.04567 = phi ptr [ %19, %.lr.ph ], [ %.146, %85 ]
  %.04766 = phi i32 [ 0, %.lr.ph ], [ %.350, %85 ]
  %22 = load i8, ptr %4, align 1
  %.not55 = icmp eq i8 %22, 0
  br i1 %.not55, label %42, label %23

23:                                               ; preds = %21
  call void @llvm.lifetime.start.p0(i64 1, ptr nonnull %5) #5
  %24 = call zeroext i1 @SDL_ReadU8_REAL(ptr noundef nonnull %1, ptr noundef nonnull %5) #5
  br i1 %24, label %25, label %.thread

.thread:                                          ; preds = %23
  call void @llvm.lifetime.end.p0(i64 1, ptr nonnull %5) #5
  br label %.loopexit

25:                                               ; preds = %23
  %26 = load i8, ptr %4, align 1
  %27 = zext i8 %26 to i32
  %28 = lshr i32 %27, %20
  %29 = trunc nuw i32 %28 to i8
  store i8 %29, ptr %4, align 1
  %30 = sext i32 %.04766 to i64
  br label %31

31:                                               ; preds = %37, %25
  %32 = phi i8 [ %39, %37 ], [ %29, %25 ]
  %indvars.iv = phi i64 [ %indvars.iv.next, %37 ], [ %30, %25 ]
  %indvars.iv.next = add nsw i64 %indvars.iv, 1
  %33 = getelementptr inbounds i8, ptr %.04567, i64 %indvars.iv
  %.not = icmp uge ptr %33, %12
  %34 = icmp ult ptr %33, %15
  %or.cond = select i1 %.not, i1 %34, i1 false
  br i1 %or.cond, label %35, label %37

35:                                               ; preds = %31
  %36 = load i8, ptr %5, align 1
  store i8 %36, ptr %33, align 1
  %.pre = load i8, ptr %4, align 1
  br label %37

37:                                               ; preds = %31, %35
  %38 = phi i8 [ %32, %31 ], [ %.pre, %35 ]
  %39 = add i8 %38, -1
  store i8 %39, ptr %4, align 1
  %.not59 = icmp eq i8 %39, 0
  br i1 %.not59, label %40, label %31, !llvm.loop !9

40:                                               ; preds = %37
  %41 = trunc nsw i64 %indvars.iv.next to i32
  call void @llvm.lifetime.end.p0(i64 1, ptr nonnull %5) #5
  br label %85

42:                                               ; preds = %21
  %43 = call zeroext i1 @SDL_ReadU8_REAL(ptr noundef nonnull %1, ptr noundef nonnull %4) #5
  br i1 %43, label %44, label %.loopexit

44:                                               ; preds = %42
  %45 = load i8, ptr %4, align 1
  switch i8 %45, label %64 [
    i8 0, label %46
    i8 1, label %.loopexit
    i8 2, label %48
  ]

46:                                               ; preds = %44
  %47 = getelementptr inbounds i8, ptr %.04567, i64 %17
  br label %85

48:                                               ; preds = %44
  %49 = call zeroext i1 @SDL_ReadU8_REAL(ptr noundef nonnull %1, ptr noundef nonnull %4) #5
  br i1 %49, label %50, label %.loopexit

50:                                               ; preds = %48
  %51 = load i8, ptr %4, align 1
  %52 = call zeroext i1 @SDL_ReadU8_REAL(ptr noundef nonnull %1, ptr noundef nonnull %4) #5
  br i1 %52, label %53, label %.loopexit

53:                                               ; preds = %50
  %54 = zext i8 %51 to i32
  %55 = lshr i32 %54, %20
  %56 = add nsw i32 %55, %.04766
  %57 = load i8, ptr %4, align 1
  %58 = zext i8 %57 to i32
  %59 = lshr i32 %58, %20
  %60 = mul nsw i32 %59, %8
  %61 = sext i32 %60 to i64
  %62 = sub nsw i64 0, %61
  %63 = getelementptr inbounds i8, ptr %.04567, i64 %62
  br label %85

64:                                               ; preds = %44
  %65 = zext i8 %45 to i32
  %66 = lshr i32 %65, %20
  %67 = trunc nuw i32 %66 to i8
  store i8 %67, ptr %4, align 1
  %68 = and i32 %66, 1
  %69 = sext i32 %.04766 to i64
  br label %70

70:                                               ; preds = %78, %64
  %indvars.iv80 = phi i64 [ %indvars.iv.next81, %78 ], [ %69, %64 ]
  call void @llvm.lifetime.start.p0(i64 1, ptr nonnull %6) #5
  %71 = call zeroext i1 @SDL_ReadU8_REAL(ptr noundef nonnull %1, ptr noundef nonnull %6) #5
  br i1 %71, label %72, label %77

72:                                               ; preds = %70
  %indvars.iv.next81 = add nsw i64 %indvars.iv80, 1
  %73 = getelementptr inbounds i8, ptr %.04567, i64 %indvars.iv80
  %.not56 = icmp uge ptr %73, %12
  %74 = icmp ult ptr %73, %15
  %or.cond60 = select i1 %.not56, i1 %74, i1 false
  br i1 %or.cond60, label %75, label %78

75:                                               ; preds = %72
  %76 = load i8, ptr %6, align 1
  store i8 %76, ptr %73, align 1
  br label %78

77:                                               ; preds = %70
  call void @llvm.lifetime.end.p0(i64 1, ptr nonnull %6) #5
  br label %.loopexit

78:                                               ; preds = %72, %75
  call void @llvm.lifetime.end.p0(i64 1, ptr nonnull %6) #5
  %79 = load i8, ptr %4, align 1
  %80 = add i8 %79, -1
  store i8 %80, ptr %4, align 1
  %.not57 = icmp eq i8 %80, 0
  br i1 %.not57, label %81, label %70, !llvm.loop !10

81:                                               ; preds = %78
  %82 = trunc nsw i64 %indvars.iv.next81 to i32
  %.not58 = icmp eq i32 %68, 0
  br i1 %.not58, label %85, label %83

83:                                               ; preds = %81
  %84 = call zeroext i1 @SDL_ReadU8_REAL(ptr noundef nonnull %1, ptr noundef nonnull %4) #5
  br i1 %84, label %85, label %.loopexit

85:                                               ; preds = %40, %46, %53, %83, %81
  %.350 = phi i32 [ %41, %40 ], [ %82, %83 ], [ %82, %81 ], [ %56, %53 ], [ 0, %46 ]
  %.146 = phi ptr [ %.04567, %40 ], [ %.04567, %83 ], [ %.04567, %81 ], [ %63, %53 ], [ %47, %46 ]
  %86 = call zeroext i1 @SDL_ReadU8_REAL(ptr noundef nonnull %1, ptr noundef nonnull %4) #5
  br i1 %86, label %21, label %.loopexit

.loopexit:                                        ; preds = %85, %42, %44, %48, %50, %83, %3, %77, %.thread
  %.144 = phi i1 [ false, %77 ], [ false, %.thread ], [ false, %3 ], [ false, %85 ], [ false, %42 ], [ true, %44 ], [ false, %48 ], [ false, %50 ], [ false, %83 ]
  call void @llvm.lifetime.end.p0(i64 1, ptr nonnull %4) #5
  ret i1 %.144
}